; Function Attrs: mustprogress uwtable
define void @_ZN7testing8internal17TestEventRepeater16OnTestProgramEndERKNS_8UnitTestE(ptr noundef nonnull readonly align 8 captures(none) dereferenceable(40) %0, ptr noundef nonnull align 8 dereferenceable(72) %1) unnamed_addr #3 align 2 {
  %3 = getelementptr inbounds nuw i8, ptr %0, i64 8
  %4 = load i8, ptr %3, align 8, !tbaa !364, !range !16, !noundef !17
  %5 = trunc nuw i8 %4 to i1
  br i1 %5, label %6, label %.loopexit

6:                                                ; preds = %2
  %7 = getelementptr inbounds nuw i8, ptr %0, i64 16
  %8 = getelementptr inbounds nuw i8, ptr %0, i64 24
  %9 = load ptr, ptr %8, align 8, !tbaa !1517
  %10 = load ptr, ptr %7, align 8, !tbaa !1515
  %.not4 = icmp eq ptr %9, %10
  br i1 %.not4, label %.loopexit, label %.lr.ph.preheader

.lr.ph.preheader:                                 ; preds = %6
  %11 = ptrtoint ptr %9 to i64
  %12 = ptrtoint ptr %10 to i64
  %13 = sub i64 %11, %12
  %14 = ashr exact i64 %13, 3
  br label %.lr.ph

.lr.ph:                                           ; preds = %.lr.ph.preheader, %.lr.ph
  %.05 = phi i64 [ %15, %.lr.ph ], [ %14, %.lr.ph.preheader ]
  %15 = add i64 %.05, -1
  %16 = load ptr, ptr %7, align 8, !tbaa !1515
  %17 = getelementptr inbounds nuw ptr, ptr %16, i64 %15
  %18 = load ptr, ptr %17, align 8, !tbaa !1513
  %19 = load ptr, ptr %18, align 8, !tbaa !32
  %20 = getelementptr inbounds nuw i8, ptr %19, i64 136
  %21 = load ptr, ptr %20, align 8
  tail call void %21(ptr noundef nonnull align 8 dereferenceable(8) %18, ptr noundef nonnull align 8 dereferenceable(72) %1)
  %.not = icmp eq i64 %15, 0
  br i1 %.not, label %.loopexit, label %.lr.ph, !llvm.loop !1532

.loopexit:                                        ; preds = %.lr.ph, %6, %2
  ret void
}